target datalayout = "e-m:e-p270:32:32-p271:32:32-p272:64:64-i64:64-i128:128-f80:128-n8:16:32:64-S128"
target triple = "x86_64-pc-linux-gnu"

%struct.object_id = type { [32 x i8], i32 }
%struct.commit = type { %struct.object, i64, ptr, ptr, i32 }
%struct.object = type { i32, %struct.object_id }

; Function Attrs: nounwind uwtable
define internal i32 @date_compare(ptr noundef %0, ptr noundef %1) #0 {
  %3 = alloca ptr, align 8
  %4 = alloca ptr, align 8
  %5 = alloca ptr, align 8
  %6 = alloca ptr, align 8
  store ptr %0, ptr %3, align 8, !tbaa !36
  store ptr %1, ptr %4, align 8, !tbaa !36
  call void @llvm.lifetime.start.p0(i64 8, ptr %5) #12
  %7 = load ptr, ptr %3, align 8, !tbaa !36
  %8 = load ptr, ptr %7, align 8, !tbaa !75
  store ptr %8, ptr %5, align 8, !tbaa !75
  call void @llvm.lifetime.start.p0(i64 8, ptr %6) #12
  %9 = load ptr, ptr %4, align 8, !tbaa !36
  %10 = load ptr, ptr %9, align 8, !tbaa !75
  store ptr %10, ptr %6, align 8, !tbaa !75
  %11 = load ptr, ptr %6, align 8, !tbaa !75
  %12 = getelementptr inbounds nuw %struct.commit, ptr %11, i32 0, i32 1
  %13 = load i64, ptr %12, align 8, !tbaa !142
  %14 = load ptr, ptr %5, align 8, !tbaa !75
  %15 = getelementptr inbounds nuw %struct.commit, ptr %14, i32 0, i32 1
  %16 = load i64, ptr %15, align 8, !tbaa !142
  %17 = sub nsw i64 %13, %16
  %18 = trunc i64 %17 to i32
  call void @llvm.lifetime.end.p0(i64 8, ptr %6) #12
  call void @llvm.lifetime.end.p0(i64 8, ptr %5) #12
  ret i32 %18
}