; Function Attrs: mustprogress nofree norecurse nosync nounwind willreturn memory(read, inaccessiblemem: none) uwtable
define internal i32 @date_compare(ptr noundef readonly captures(none) %0, ptr noundef readonly captures(none) %1) #10 {
  %3 = load ptr, ptr %0, align 8, !tbaa !79
  %4 = load ptr, ptr %1, align 8, !tbaa !79
  %5 = getelementptr inbounds nuw i8, ptr %4, i64 40
  %6 = load i64, ptr %5, align 8, !tbaa !126
  %7 = getelementptr inbounds nuw i8, ptr %3, i64 40
  %8 = load i64, ptr %7, align 8, !tbaa !126
  %9 = sub nsw i64 %6, %8
  %10 = trunc i64 %9 to i32
  ret i32 %10
}